; Function Attrs: null_pointer_is_valid sspstrong uwtable
define internal fastcc void @dissect_zcl_rssi_location_set_absolute_location(ptr noundef %0, ptr noundef %1, ptr noundef captures(none) %2) unnamed_addr #0 {
  %4 = load i32, ptr @hf_zbee_zcl_rssi_location_coordinate1, align 4
  %5 = load i32, ptr %2, align 4
  %6 = tail call ptr @proto_tree_add_item(ptr noundef %1, i32 noundef %4, ptr noundef %0, i32 noundef %5, i32 noundef 2, i32 noundef -2147483648)
  %7 = load i32, ptr %2, align 4
  %8 = add i32 %7, 2
  store i32 %8, ptr %2, align 4
  %9 = load i32, ptr @hf_zbee_zcl_rssi_location_coordinate2, align 4
  %10 = tail call ptr @proto_tree_add_item(ptr noundef %1, i32 noundef %9, ptr noundef %0, i32 noundef %8, i32 noundef 2, i32 noundef -2147483648)
  %11 = load i32, ptr %2, align 4
  %12 = add i32 %11, 2
  store i32 %12, ptr %2, align 4
  %13 = load i32, ptr @hf_zbee_zcl_rssi_location_coordinate3, align 4
  %14 = tail call ptr @proto_tree_add_item(ptr noundef %1, i32 noundef %13, ptr noundef %0, i32 noundef %12, i32 noundef 2, i32 noundef -2147483648)
  %15 = load i32, ptr %2, align 4
  %16 = add i32 %15, 2
  store i32 %16, ptr %2, align 4
  %17 = load i32, ptr @hf_zbee_zcl_rssi_location_power, align 4
  %18 = tail call ptr @proto_tree_add_item(ptr noundef %1, i32 noundef %17, ptr noundef %0, i32 noundef %16, i32 noundef 2, i32 noundef -2147483648)
  %19 = load i32, ptr %2, align 4
  %20 = add i32 %19, 2
  store i32 %20, ptr %2, align 4
  %21 = load i32, ptr @hf_zbee_zcl_rssi_location_path_loss_expo, align 4
  %22 = tail call ptr @proto_tree_add_item(ptr noundef %1, i32 noundef %21, ptr noundef %0, i32 noundef %20, i32 noundef 2, i32 noundef -2147483648)
  %23 = load i32, ptr %2, align 4
  %24 = add i32 %23, 2
  store i32 %24, ptr %2, align 4
  ret void
}